target datalayout = "e-m:e-p270:32:32-p271:32:32-p272:64:64-i64:64-i128:128-f80:128-n8:16:32:64-S128"
target triple = "x86_64-pc-linux-gnu"

%struct.H5FD_core_t = type { %struct.H5FD_t, ptr, ptr, i64, i64, i64, i8, i8, i64, i8, i32, i64, i64, i8, %struct.H5FD_file_image_callbacks_t, ptr }
%struct.H5FD_t = type { i64, ptr, i64, i32, i64, i64, i64, i64, i64, i8 }
%struct.H5FD_file_image_callbacks_t = type { ptr, ptr, ptr, ptr, ptr, ptr, ptr }

@H5FD_init_g = external global i8, align 1
@H5_libterm_g = external global i8, align 1
@.str.1 = private unnamed_addr constant [102 x i8] c"generated/home/dtcxzyw/WorkSpace/Projects/compilers/llvm-opt-benchmark/bench/hdf5/hdf5/src/H5FDcore.c\00", align 1
@H5E_ARGS_g = external global i64, align 8
@H5E_OVERFLOW_g = external global i64, align 8
@__func__.H5FD__core_set_eoa = private unnamed_addr constant [19 x i8] c"H5FD__core_set_eoa\00", align 1
@.str.38 = private unnamed_addr constant [17 x i8] c"address overflow\00", align 1

; Function Attrs: nounwind uwtable
define internal i32 @H5FD__core_set_eoa(ptr noundef %0, i32 noundef %1, i64 noundef %2) #0 {
  %4 = alloca ptr, align 8
  %5 = alloca i32, align 4
  %6 = alloca i64, align 8
  %7 = alloca ptr, align 8
  %8 = alloca i32, align 4
  %9 = alloca i8, align 1
  store ptr %0, ptr %4, align 8, !tbaa !29
  store i32 %1, ptr %5, align 4, !tbaa !3
  store i64 %2, ptr %6, align 8, !tbaa !11
  call void @llvm.lifetime.start.p0(i64 8, ptr %7) #12
  %10 = load ptr, ptr %4, align 8, !tbaa !29
  store ptr %10, ptr %7, align 8, !tbaa !31
  call void @llvm.lifetime.start.p0(i64 4, ptr %8) #12
  store i32 0, ptr %8, align 4, !tbaa !3
  call void @llvm.lifetime.start.p0(i64 1, ptr %9) #12
  store i8 0, ptr %9, align 1, !tbaa !7
  %11 = load i8, ptr @H5FD_init_g, align 1, !tbaa !7, !range !9, !noundef !10
  %12 = trunc i8 %11 to i1
  br i1 %12, label %17, label %13

13:                                               ; preds = %3
  %14 = load i8, ptr @H5_libterm_g, align 1, !tbaa !7, !range !9, !noundef !10
  %15 = trunc i8 %14 to i1
  %16 = xor i1 %15, true
  br label %17

17:                                               ; preds = %13, %3
  %18 = phi i1 [ true, %3 ], [ %16, %13 ]
  %19 = xor i1 %18, true
  %20 = xor i1 %19, true
  %21 = zext i1 %20 to i32
  %22 = sext i32 %21 to i64
  %23 = call i64 @llvm.expect.i64(i64 %22, i64 1)
  %24 = icmp ne i64 %23, 0
  br i1 %24, label %25, label %55

25:                                               ; preds = %17
  %26 = load i64, ptr %6, align 8, !tbaa !11
  %27 = icmp eq i64 -1, %26
  br i1 %27, label %31, label %28

28:                                               ; preds = %25
  %29 = load i64, ptr %6, align 8, !tbaa !11
  %30 = icmp ugt i64 %29, -2
  br i1 %30, label %31, label %50

31:                                               ; preds = %28, %25
  br label %32

32:                                               ; preds = %31
  br label %33

33:                                               ; preds = %32
  br label %34

34:                                               ; preds = %33
  %35 = load i64, ptr @H5E_ARGS_g, align 8, !tbaa !11
  %36 = load i64, ptr @H5E_OVERFLOW_g, align 8, !tbaa !11
  %37 = call i32 (ptr, ptr, i32, i64, i64, ptr, ...) @H5E_printf_stack(ptr noundef @.str.1, ptr noundef @__func__.H5FD__core_set_eoa, i32 noundef 1180, i64 noundef %35, i64 noundef %36, ptr noundef @.str.38)
  br label %38

38:                                               ; preds = %34
  br label %39

39:                                               ; preds = %38
  store i8 1, ptr %9, align 1, !tbaa !7
  %40 = load i8, ptr %9, align 1, !tbaa !7, !range !9, !noundef !10
  %41 = trunc i8 %40 to i1
  %42 = zext i1 %41 to i8
  store i8 %42, ptr %9, align 1, !tbaa !7
  br label %43

43:                                               ; preds = %39
  br label %44

44:                                               ; preds = %43
  br label %45

45:                                               ; preds = %44
  store i32 -1, ptr %8, align 4, !tbaa !3
  br label %54

46:                                               ; No predecessors!
  br label %47

47:                                               ; preds = %46
  br label %48

48:                                               ; preds = %47
  br label %49

49:                                               ; preds = %48
  br label %50

50:                                               ; preds = %49, %28
  %51 = load i64, ptr %6, align 8, !tbaa !11
  %52 = load ptr, ptr %7, align 8, !tbaa !31
  %53 = getelementptr inbounds nuw %struct.H5FD_core_t, ptr %52, i32 0, i32 3
  store i64 %51, ptr %53, align 8, !tbaa !68
  br label %54

54:                                               ; preds = %50, %45
  br label %55

55:                                               ; preds = %54, %17
  %56 = load i32, ptr %8, align 4, !tbaa !3
  call void @llvm.lifetime.end.p0(i64 1, ptr %9) #12
  call void @llvm.lifetime.end.p0(i64 4, ptr %8) #12
  call void @llvm.lifetime.end.p0(i64 8, ptr %7) #12
  ret i32 %56
}