; Function Attrs: nounwind uwtable
define internal range(i32 -1, 1) i32 @H5FD__core_set_eoa(ptr noundef writeonly captures(none) %0, i32 %1, i64 noundef %2) #0 {
  %4 = load i8, ptr @H5FD_init_g, align 1, !tbaa !3, !range !7, !noundef !8
  %5 = trunc nuw i8 %4 to i1
  %6 = load i8, ptr @H5_libterm_g, align 1, !range !7
  %7 = trunc nuw i8 %6 to i1
  %8 = xor i1 %7, true
  %9 = select i1 %5, i1 true, i1 %8
  br i1 %9, label %10, label %18, !prof !9

10:                                               ; preds = %3
  %11 = icmp eq i64 %2, -1
  br i1 %11, label %12, label %16

12:                                               ; preds = %10
  %13 = load i64, ptr @H5E_ARGS_g, align 8, !tbaa !10
  %14 = load i64, ptr @H5E_OVERFLOW_g, align 8, !tbaa !10
  %15 = tail call i32 (ptr, ptr, i32, i64, i64, ptr, ...) @H5E_printf_stack(ptr noundef nonnull @.str.1, ptr noundef nonnull @__func__.H5FD__core_set_eoa, i32 noundef 1180, i64 noundef %13, i64 noundef %14, ptr noundef nonnull @.str.38) #18
  br label %18

16:                                               ; preds = %10
  %17 = getelementptr inbounds nuw i8, ptr %0, i64 96
  store i64 %2, ptr %17, align 8, !tbaa !60
  br label %18

18:                                               ; preds = %12, %16, %3
  %.0 = phi i32 [ -1, %12 ], [ 0, %16 ], [ 0, %3 ]
  ret i32 %.0
}